; Function Attrs: mustprogress nofree norecurse nosync nounwind willreturn memory(argmem: readwrite) uwtable
define hidden void @_ZN21AdaptivePaddedAverage6sampleEf(ptr nocapture noundef nonnull align 4 dereferenceable(32) %0, float noundef %1) local_unnamed_addr #1 align 2 {
  %3 = getelementptr inbounds i8, ptr %0, i64 4
  %4 = load i32, ptr %3, align 4
  %5 = add i32 %4, 1
  store i32 %5, ptr %3, align 4
  %6 = getelementptr inbounds i8, ptr %0, i64 12
  %7 = load i8, ptr %6, align 4
  %8 = trunc i8 %7 to i1
  %9 = icmp ult i32 %5, 101
  %or.cond.not.i.i = select i1 %8, i1 true, i1 %9
  br i1 %or.cond.not.i.i, label %_ZN23AdaptiveWeightedAverage15increment_countEv.exit.i, label %_ZN23AdaptiveWeightedAverage15increment_countEv.exit.thread.i

_ZN23AdaptiveWeightedAverage15increment_countEv.exit.thread.i: ; preds = %2
  store i8 1, ptr %6, align 4
  %10 = load float, ptr %0, align 4
  br label %_ZN23AdaptiveWeightedAverage6sampleEf.exit

_ZN23AdaptiveWeightedAverage15increment_countEv.exit.i: ; preds = %2
  %11 = load float, ptr %0, align 4
  br i1 %8, label %_ZN23AdaptiveWeightedAverage6sampleEf.exit, label %12

12:                                               ; preds = %_ZN23AdaptiveWeightedAverage15increment_countEv.exit.i
  %13 = udiv i32 100, %5
  br label %_ZN23AdaptiveWeightedAverage6sampleEf.exit

_ZN23AdaptiveWeightedAverage6sampleEf.exit:       ; preds = %_ZN23AdaptiveWeightedAverage15increment_countEv.exit.thread.i, %_ZN23AdaptiveWeightedAverage15increment_countEv.exit.i, %12
  %14 = phi i8 [ %7, %_ZN23AdaptiveWeightedAverage15increment_countEv.exit.i ], [ %7, %12 ], [ 1, %_ZN23AdaptiveWeightedAverage15increment_countEv.exit.thread.i ]
  %15 = phi float [ %11, %_ZN23AdaptiveWeightedAverage15increment_countEv.exit.i ], [ %11, %12 ], [ %10, %_ZN23AdaptiveWeightedAverage15increment_countEv.exit.thread.i ]
  %.0.i.i = phi i32 [ 0, %_ZN23AdaptiveWeightedAverage15increment_countEv.exit.i ], [ %13, %12 ], [ 0, %_ZN23AdaptiveWeightedAverage15increment_countEv.exit.thread.i ]
  %16 = getelementptr inbounds i8, ptr %0, i64 8
  %17 = load i32, ptr %16, align 4
  %18 = tail call noundef i32 @llvm.umax.i32(i32 %17, i32 %.0.i.i)
  %19 = uitofp i32 %18 to float
  %20 = fsub float 1.000000e+02, %19
  %21 = fmul float %15, %20
  %22 = fdiv float %21, 1.000000e+02
  %23 = fmul float %19, %1
  %24 = fdiv float %23, 1.000000e+02
  %25 = fadd float %24, %22
  store float %25, ptr %0, align 4
  %26 = getelementptr inbounds i8, ptr %0, i64 24
  %27 = load float, ptr %26, align 4
  %28 = trunc i8 %14 to i1
  br i1 %28, label %_ZN23AdaptiveWeightedAverage24compute_adaptive_averageEff.exit, label %29

29:                                               ; preds = %_ZN23AdaptiveWeightedAverage6sampleEf.exit
  %30 = udiv i32 100, %5
  br label %_ZN23AdaptiveWeightedAverage24compute_adaptive_averageEff.exit

_ZN23AdaptiveWeightedAverage24compute_adaptive_averageEff.exit: ; preds = %_ZN23AdaptiveWeightedAverage6sampleEf.exit, %29
  %.0.i = phi i32 [ 0, %_ZN23AdaptiveWeightedAverage6sampleEf.exit ], [ %30, %29 ]
  %31 = getelementptr inbounds i8, ptr %0, i64 16
  %32 = fsub float %1, %25
  %33 = tail call noundef float @llvm.fabs.f32(float %32)
  %34 = tail call noundef i32 @llvm.umax.i32(i32 %17, i32 %.0.i)
  %35 = uitofp i32 %34 to float
  %36 = fsub float 1.000000e+02, %35
  %37 = fmul float %27, %36
  %38 = fdiv float %37, 1.000000e+02
  %39 = fmul float %33, %35
  %40 = fdiv float %39, 1.000000e+02
  %41 = fadd float %40, %38
  store float %41, ptr %26, align 4
  %42 = getelementptr inbounds i8, ptr %0, i64 28
  %43 = load i32, ptr %42, align 4
  %44 = uitofp i32 %43 to float
  %45 = tail call float @llvm.fmuladd.f32(float %44, float %41, float %25)
  %46 = getelementptr inbounds i8, ptr %0, i64 20
  store float %45, ptr %46, align 4
  store float %1, ptr %31, align 4
  ret void
}